target datalayout = "e-m:e-p270:32:32-p271:32:32-p272:64:64-i64:64-i128:128-f80:128-n8:16:32:64-S128"
target triple = "x86_64-pc-linux-gnu"

; Function Attrs: mustprogress nounwind uwtable
define hidden noundef i32 @_ZN5o3dgc8IPredictEPll(ptr noundef %0, i64 noundef %1) #0 {
  %3 = alloca ptr, align 8
  %4 = alloca i64, align 8
  %5 = alloca i64, align 8
  %6 = alloca i64, align 8
  store ptr %0, ptr %3, align 8
  store i64 %1, ptr %4, align 8
  call void @llvm.lifetime.start.p0(i64 8, ptr %5) #11
  %7 = load i64, ptr %4, align 8
  %8 = sub nsw i64 %7, 1
  store i64 %8, ptr %5, align 8
  call void @llvm.lifetime.start.p0(i64 8, ptr %6) #11
  store i64 1, ptr %6, align 8
  br label %9

9:                                                ; preds = %13, %2
  %10 = load i64, ptr %6, align 8
  %11 = load i64, ptr %5, align 8
  %12 = icmp slt i64 %10, %11
  br i1 %12, label %13, label %34

13:                                               ; preds = %9
  %14 = load ptr, ptr %3, align 8
  %15 = load i64, ptr %6, align 8
  %16 = sub nsw i64 %15, 1
  %17 = getelementptr inbounds i64, ptr %14, i64 %16
  %18 = load i64, ptr %17, align 8
  %19 = load ptr, ptr %3, align 8
  %20 = load i64, ptr %6, align 8
  %21 = add nsw i64 %20, 1
  %22 = getelementptr inbounds i64, ptr %19, i64 %21
  %23 = load i64, ptr %22, align 8
  %24 = add nsw i64 %18, %23
  %25 = add nsw i64 %24, 1
  %26 = ashr i64 %25, 1
  %27 = load ptr, ptr %3, align 8
  %28 = load i64, ptr %6, align 8
  %29 = getelementptr inbounds i64, ptr %27, i64 %28
  %30 = load i64, ptr %29, align 8
  %31 = add nsw i64 %30, %26
  store i64 %31, ptr %29, align 8
  %32 = load i64, ptr %6, align 8
  %33 = add nsw i64 %32, 2
  store i64 %33, ptr %6, align 8
  br label %9, !llvm.loop !5

34:                                               ; preds = %9
  %35 = load i64, ptr %6, align 8
  %36 = load i64, ptr %5, align 8
  %37 = icmp eq i64 %35, %36
  br i1 %37, label %38, label %49

38:                                               ; preds = %34
  %39 = load ptr, ptr %3, align 8
  %40 = load i64, ptr %6, align 8
  %41 = sub nsw i64 %40, 1
  %42 = getelementptr inbounds i64, ptr %39, i64 %41
  %43 = load i64, ptr %42, align 8
  %44 = load ptr, ptr %3, align 8
  %45 = load i64, ptr %6, align 8
  %46 = getelementptr inbounds i64, ptr %44, i64 %45
  %47 = load i64, ptr %46, align 8
  %48 = add nsw i64 %47, %43
  store i64 %48, ptr %46, align 8
  br label %49

49:                                               ; preds = %38, %34
  call void @llvm.lifetime.end.p0(i64 8, ptr %6) #11
  call void @llvm.lifetime.end.p0(i64 8, ptr %5) #11
  ret i32 0
}