; Function Attrs: mustprogress nofree norecurse nosync nounwind memory(argmem: readwrite) uwtable
define hidden noundef i32 @_ZN5o3dgc8IPredictEPll(ptr noundef captures(none) %0, i64 noundef %1) local_unnamed_addr #0 {
  %3 = add nsw i64 %1, -1
  %4 = icmp sgt i64 %1, 2
  br i1 %4, label %.lr.ph, label %._crit_edge

.lr.ph:                                           ; preds = %2, %.lr.ph
  %.016 = phi i64 [ %15, %.lr.ph ], [ 1, %2 ]
  %5 = getelementptr i64, ptr %0, i64 %.016
  %6 = getelementptr i8, ptr %5, i64 -8
  %7 = load i64, ptr %6, align 8
  %8 = getelementptr inbounds nuw i8, ptr %5, i64 8
  %9 = load i64, ptr %8, align 8
  %10 = add i64 %7, 1
  %11 = add i64 %10, %9
  %12 = ashr i64 %11, 1
  %13 = load i64, ptr %5, align 8
  %14 = add nsw i64 %12, %13
  store i64 %14, ptr %5, align 8
  %15 = add nuw nsw i64 %.016, 2
  %16 = icmp slt i64 %15, %3
  br i1 %16, label %.lr.ph, label %._crit_edge, !llvm.loop !5

._crit_edge:                                      ; preds = %.lr.ph, %2
  %.0.lcssa = phi i64 [ 1, %2 ], [ %15, %.lr.ph ]
  %17 = icmp eq i64 %.0.lcssa, %3
  br i1 %17, label %18, label %24

18:                                               ; preds = %._crit_edge
  %19 = getelementptr i64, ptr %0, i64 %3
  %20 = getelementptr i8, ptr %19, i64 -8
  %21 = load i64, ptr %20, align 8
  %22 = load i64, ptr %19, align 8
  %23 = add nsw i64 %22, %21
  store i64 %23, ptr %19, align 8
  br label %24

24:                                               ; preds = %18, %._crit_edge
  ret i32 0
}